Certificate Request:
    Data:
        Version: 0 (0x0)
        Subject: C=FR, ST=France, O=Sigmalis, OU=Sigmalis, CN=Timestamp Autorite (TSA) Sigmalis
        Subject Public Key Info:
            Public Key Algorithm: rsaEncryption
            RSA Public Key: (1024 bit)
                Modulus (1024 bit):
                    00:bc:83:34:b4:3e:69:a3:b6:10:af:8d:11:76:32:
                    ca:e3:8d:d5:10:6b:79:4b:d3:d5:54:c6:86:af:2f:
                    0d:b3:d1:d3:ee:de:ca:3d:15:1f:01:9c:7e:e3:42:
                    45:bc:76:df:97:de:4b:22:4b:6b:8f:65:a1:f6:0a:
                    25:a4:67:96:b6:93:7a:d7:b6:b3:ad:98:81:1a:d3:
                    70:1b:30:37:5c:c2:d8:0b:89:32:c0:dc:db:8f:97:
                    b1:3d:86:20:d2:7d:55:08:87:ba:1c:3f:dd:bc:10:
                    49:0e:bd:21:9e:da:97:44:ea:e9:1b:86:36:28:8f:
                    14:b0:4e:e2:e7:e7:be:f5:21
                Exponent: 65537 (0x10001)
        Attributes:
            a0:00
    Signature Algorithm: sha1WithRSAEncryption
        1e:fd:34:d3:6a:8a:a7:93:cb:e5:8a:e4:8b:f4:23:60:c5:0b:
        a9:41:de:ec:94:f5:da:dd:5b:e1:a4:c4:9f:87:07:5d:bf:c2:
        01:d2:6e:d8:c2:4b:59:4d:77:b5:ff:01:30:6f:5d:e0:02:07:
        e3:a7:d1:f0:4c:e9:9f:62:11:40:78:ea:39:06:9a:8a:98:f6:
        c8:31:e5:bb:90:c1:29:24:bf:78:12:9b:90:f3:5a:19:b7:9e:
        8b:6e:1c:14:eb:5a:d1:5e:d2:ab:3b:34:5f:4d:1a:07:bd:9c:
        3e:00:e0:74:da:45:7b:15:cd:1f:5c:a1:e9:9b:df:13:5c:0d:
        d1:ff
-----BEGIN CERTIFICATE REQUEST-----
MIIBsDCCARkCAQAwcDELMAkGA1UEBhMCRlIxDzANBgNVBAgTBkZyYW5jZTERMA8G
A1UEChMIU2lnbWFsaXMxETAPBgNVBAsTCFNpZ21hbGlzMSowKAYDVQQDEyFUaW1l
c3RhbXAgQXV0b3JpdGUgKFRTQSkgU2lnbWFsaXMwgZ8wDQYJKoZIhvcNAQEBBQAD
gY0AMIGJAoGBALyDNLQ+aaO2EK+NEXYyyuON1RBreUvT1VTGhq8vDbPR0+7eyj0V
HwGcfuNCRbx235feSyJLa49lofYKJaRnlraTete2s62YgRrTcBswN1zC2AuJMsDc
24+XsT2GINJ9VQiHuhw/3bwQSQ69IZ7al0Tq6RuGNiiPFLBO4ufnvvUhAgMBAAGg
ADANBgkqhkiG9w0BAQUFAAOBgQAe/TTTaoqnk8vliuSL9CNgxQupQd7slPXa3Vvh
pMSfhwddv8IB0m7YwktZTXe1/wEwb13gAgfjp9HwTOmfYhFAeOo5BpqKmPbIMeW7
kMEpJL94EpuQ81oZt56LbhwU61rRXtKrOzRfTRoHvZw+AOB02kV7Fc0fXKHpm98T
XA3R/w==
-----END CERTIFICATE REQUEST-----
