Certificate:
    Data:
        Version: 3 (0x2)
        Serial Number: 286 (0x11e)
        Signature Algorithm: sha1WithRSAEncryption
        Issuer: C=FR, ST=France, L=Lyon, O=Sigmalis, CN=autorite developpement site s2low
        Validity
            Not Before: Nov  6 06:21:48 2010 GMT
            Not After : Nov  6 06:21:48 2011 GMT
        Subject: C=FR, ST=France, O=Sigmalis, OU=Sigmalis, CN=Timestamp Autorite (TSA) Sigmalis
        Subject Public Key Info:
            Public Key Algorithm: rsaEncryption
                Public-Key: (1024 bit)
                Modulus:
                    00:bc:83:34:b4:3e:69:a3:b6:10:af:8d:11:76:32:
                    ca:e3:8d:d5:10:6b:79:4b:d3:d5:54:c6:86:af:2f:
                    0d:b3:d1:d3:ee:de:ca:3d:15:1f:01:9c:7e:e3:42:
                    45:bc:76:df:97:de:4b:22:4b:6b:8f:65:a1:f6:0a:
                    25:a4:67:96:b6:93:7a:d7:b6:b3:ad:98:81:1a:d3:
                    70:1b:30:37:5c:c2:d8:0b:89:32:c0:dc:db:8f:97:
                    b1:3d:86:20:d2:7d:55:08:87:ba:1c:3f:dd:bc:10:
                    49:0e:bd:21:9e:da:97:44:ea:e9:1b:86:36:28:8f:
                    14:b0:4e:e2:e7:e7:be:f5:21
                Exponent: 65537 (0x10001)
        X509v3 extensions:
            X509v3 Basic Constraints: 
                CA:FALSE
            Netscape Comment: 
                OpenSSL Generated Certificate
            X509v3 Subject Key Identifier: 
                6D:5A:3B:12:2D:9E:D8:66:E3:3F:68:D5:10:A9:28:09:7F:6A:16:BD
            X509v3 Authority Key Identifier: 
                DirName:/C=FR/ST=France/L=Lyon/O=Sigmalis/CN=autorite developpement site s2low
                serial:C2:7E:31:78:FB:B5:C3:72

            X509v3 Extended Key Usage: critical
                Time Stamping
    Signature Algorithm: sha1WithRSAEncryption
        1d:87:9f:63:57:97:31:9a:5e:e6:ef:c4:d2:68:69:52:ad:b4:
        eb:71:82:33:92:02:3c:49:bb:b0:91:28:bf:fa:60:09:68:f7:
        38:51:6a:f4:30:91:2a:ae:2a:a5:d7:e1:42:0a:5b:c7:3d:f5:
        f6:75:ee:80:3f:3e:50:a7:c5:a5:b6:a9:0f:1a:b5:c4:a9:3e:
        3d:37:7e:91:3c:42:7d:ed:c6:57:85:14:dd:a1:e8:ca:c5:b7:
        82:7c:58:1b:e1:c4:45:3b:30:6e:5f:ac:1c:50:e6:31:29:07:
        b9:3b:63:b1:35:97:d4:00:03:b3:66:16:2f:ed:0a:c3:0c:33:
        4a:a0
-----BEGIN CERTIFICATE-----
MIIDUDCCArmgAwIBAgICAR4wDQYJKoZIhvcNAQEFBQAwbDELMAkGA1UEBhMCRlIx
DzANBgNVBAgTBkZyYW5jZTENMAsGA1UEBxMETHlvbjERMA8GA1UEChMIU2lnbWFs
aXMxKjAoBgNVBAMTIWF1dG9yaXRlIGRldmVsb3BwZW1lbnQgc2l0ZSBzMmxvdzAe
Fw0xMDExMDYwNjIxNDhaFw0xMTExMDYwNjIxNDhaMHAxCzAJBgNVBAYTAkZSMQ8w
DQYDVQQIEwZGcmFuY2UxETAPBgNVBAoTCFNpZ21hbGlzMREwDwYDVQQLEwhTaWdt
YWxpczEqMCgGA1UEAxMhVGltZXN0YW1wIEF1dG9yaXRlIChUU0EpIFNpZ21hbGlz
MIGfMA0GCSqGSIb3DQEBAQUAA4GNADCBiQKBgQC8gzS0PmmjthCvjRF2MsrjjdUQ
a3lL09VUxoavLw2z0dPu3so9FR8BnH7jQkW8dt+X3ksiS2uPZaH2CiWkZ5a2k3rX
trOtmIEa03AbMDdcwtgLiTLA3NuPl7E9hiDSfVUIh7ocP928EEkOvSGe2pdE6ukb
hjYojxSwTuLn5771IQIDAQABo4H8MIH5MAkGA1UdEwQCMAAwLAYJYIZIAYb4QgEN
BB8WHU9wZW5TU0wgR2VuZXJhdGVkIENlcnRpZmljYXRlMB0GA1UdDgQWBBRtWjsS
LZ7YZuM/aNUQqSgJf2oWvTCBhgYDVR0jBH8wfaFwpG4wbDELMAkGA1UEBhMCRlIx
DzANBgNVBAgTBkZyYW5jZTENMAsGA1UEBxMETHlvbjERMA8GA1UEChMIU2lnbWFs
aXMxKjAoBgNVBAMTIWF1dG9yaXRlIGRldmVsb3BwZW1lbnQgc2l0ZSBzMmxvd4IJ
AMJ+MXj7tcNyMBYGA1UdJQEB/wQMMAoGCCsGAQUFBwMIMA0GCSqGSIb3DQEBBQUA
A4GBAB2Hn2NXlzGaXubvxNJoaVKttOtxgjOSAjxJu7CRKL/6YAlo9zhRavQwkSqu
KqXX4UIKW8c99fZ17oA/PlCnxaW2qQ8atcSpPj03fpE8Qn3txleFFN2h6MrFt4J8
WBvhxEU7MG5frBxQ5jEpB7k7Y7E1l9QAA7NmFi/tCsMMM0qg
-----END CERTIFICATE-----
